; Function Attrs: mustprogress nounwind uwtable
define hidden noundef i64 @_ZN8ZBarrier17relocate_or_remapE15zaddress_unsafeP11ZGeneration(i64 noundef %0, ptr noundef %1) local_unnamed_addr #0 align 2 {
  %3 = load i64, ptr @ZAddressOffsetMask, align 8
  %4 = and i64 %3, %0
  %5 = lshr i64 %4, 21
  %6 = getelementptr inbounds i8, ptr %1, i64 40
  %7 = load ptr, ptr %6, align 8
  %8 = getelementptr inbounds ptr, ptr %7, i64 %5
  %9 = load volatile ptr, ptr %8, align 8
  %10 = icmp eq ptr %9, null
  br i1 %10, label %_ZN11ZGeneration24relocate_or_remap_objectE15zaddress_unsafe.exit, label %11

11:                                               ; preds = %2
  %12 = getelementptr inbounds i8, ptr %1, i64 2944
  %13 = tail call noundef i64 @_ZN9ZRelocate15relocate_objectEP11ZForwarding15zaddress_unsafe(ptr noundef nonnull align 8 dereferenceable(128) %12, ptr noundef nonnull %9, i64 noundef %0) #6
  br label %_ZN11ZGeneration24relocate_or_remap_objectE15zaddress_unsafe.exit

_ZN11ZGeneration24relocate_or_remap_objectE15zaddress_unsafe.exit: ; preds = %2, %11
  %.0.i = phi i64 [ %13, %11 ], [ %0, %2 ]
  ret i64 %.0.i
}